target datalayout = "e-m:e-p270:32:32-p271:32:32-p272:64:64-i64:64-i128:128-f80:128-n8:16:32:64-S128"
target triple = "x86_64-pc-linux-gnu"

%"struct.faiss::Index" = type <{ ptr, i32, [4 x i8], i64, i8, i8, [2 x i8], i32, float, [4 x i8] }>

; Function Attrs: mustprogress nounwind uwtable
define void @_ZNK5faiss9IndexFlat9sa_encodeElPKfPh(ptr noundef nonnull align 8 dereferenceable(72) %0, i64 noundef %1, ptr noundef %2, ptr noundef %3) unnamed_addr #3 align 2 {
  %5 = alloca ptr, align 8
  %6 = alloca i64, align 8
  %7 = alloca ptr, align 8
  %8 = alloca ptr, align 8
  store ptr %0, ptr %5, align 8, !tbaa !11
  store i64 %1, ptr %6, align 8, !tbaa !13
  store ptr %2, ptr %7, align 8, !tbaa !15
  store ptr %3, ptr %8, align 8, !tbaa !55
  %9 = load ptr, ptr %5, align 8
  %10 = load i64, ptr %6, align 8, !tbaa !13
  %11 = icmp sgt i64 %10, 0
  br i1 %11, label %12, label %21

12:                                               ; preds = %4
  %13 = load ptr, ptr %8, align 8, !tbaa !55
  %14 = load ptr, ptr %7, align 8, !tbaa !15
  %15 = getelementptr inbounds nuw %"struct.faiss::Index", ptr %9, i32 0, i32 1
  %16 = load i32, ptr %15, align 8, !tbaa !37
  %17 = sext i32 %16 to i64
  %18 = mul i64 4, %17
  %19 = load i64, ptr %6, align 8, !tbaa !13
  %20 = mul i64 %18, %19
  call void @llvm.memcpy.p0.p0.i64(ptr align 1 %13, ptr align 4 %14, i64 %20, i1 false)
  br label %21

21:                                               ; preds = %12, %4
  ret void
}