; Function Attrs: mustprogress nofree norecurse nosync nounwind willreturn memory(argmem: readwrite) uwtable
define void @_ZNK5faiss9IndexFlat9sa_encodeElPKfPh(ptr noundef nonnull readonly align 8 captures(none) dereferenceable(72) %0, i64 noundef %1, ptr noundef readonly captures(none) %2, ptr noundef writeonly captures(none) %3) unnamed_addr #4 align 2 {
  %5 = icmp sgt i64 %1, 0
  br i1 %5, label %6, label %12

6:                                                ; preds = %4
  %7 = getelementptr inbounds nuw i8, ptr %0, i64 8
  %8 = load i32, ptr %7, align 8, !tbaa !36
  %9 = sext i32 %8 to i64
  %10 = shl i64 %1, 2
  %11 = mul i64 %10, %9
  tail call void @llvm.memcpy.p0.p0.i64(ptr align 1 %3, ptr align 4 %2, i64 %11, i1 false)
  br label %12

12:                                               ; preds = %6, %4
  ret void
}